; Function Attrs: mustprogress nofree norecurse nosync nounwind willreturn memory(argmem: readwrite) uwtable
define hidden void @_ZN10smt_params11setup_QF_AXERK15static_features(ptr nocapture noundef nonnull writeonly align 8 dereferenceable(800) %this, ptr nocapture noundef nonnull readonly align 8 dereferenceable(792) %st) local_unnamed_addr #5 align 2 {
entry:
  %m_has_ext_arrays = getelementptr inbounds i8, ptr %st, i64 525
  %0 = load i8, ptr %m_has_ext_arrays, align 1
  %1 = and i8 %0, 1
  %tobool.not = icmp eq i8 %1, 0
  %cond = select i1 %tobool.not, i32 1, i32 3
  %m_array_mode = getelementptr inbounds i8, ptr %this, i64 396
  store i32 %cond, ptr %m_array_mode, align 4
  %m_nnf_cnf = getelementptr inbounds i8, ptr %this, i64 58
  store i8 0, ptr %m_nnf_cnf, align 2
  %m_num_clauses = getelementptr inbounds i8, ptr %st, i64 428
  %2 = load i32, ptr %m_num_clauses, align 4
  %m_num_units = getelementptr inbounds i8, ptr %st, i64 436
  %3 = load i32, ptr %m_num_units, align 4
  %cmp = icmp eq i32 %2, %3
  br i1 %cmp, label %if.then, label %if.end

if.then:                                          ; preds = %entry
  %m_phase_selection = getelementptr inbounds i8, ptr %this, i64 552
  store i32 0, ptr %m_phase_selection, align 8
  br label %if.end

if.end:                                           ; preds = %entry, %if.then
  %.sink = phi i32 [ 0, %if.then ], [ 2, %entry ]
  %4 = getelementptr inbounds i8, ptr %this, i64 512
  store i32 %.sink, ptr %4, align 8
  ret void
}